target datalayout = "e-m:e-p270:32:32-p271:32:32-p272:64:64-i64:64-i128:128-f80:128-n8:16:32:64-S128"
target triple = "x86_64-unknown-linux-gnu"

%class.btMatrix3x3 = type { [3 x %class.btVector3] }
%class.btVector3 = type { [4 x float] }
%class.btReducedDeformableStaticConstraint = type <{ %class.btDeformableStaticConstraint, ptr, float, %class.btVector3, %class.btVector3, %class.btVector3, %class.btMatrix3x3, float, float, float, float, [4 x i8] }>
%class.btDeformableStaticConstraint = type { %class.btDeformableContactConstraint, ptr }
%class.btDeformableContactConstraint = type { ptr, i8, ptr, %class.btVector3 }
%"struct.btSoftBody::Node" = type <{ %"struct.btSoftBody::Feature", %class.btVector3, %class.btVector3, %class.btVector3, %class.btVector3, %class.btVector3, %class.btVector3, float, float, ptr, i32, i8, [3 x i8], i32, %class.btVector3, %class.btMatrix3x3, %class.btMatrix3x3, [4 x i8] }>
%"struct.btSoftBody::Feature" = type { %"struct.btSoftBody::Element", ptr }
%"struct.btSoftBody::Element" = type { ptr }
%class.btCollisionObject = type <{ ptr, %class.btTransform, %class.btTransform, %class.btVector3, %class.btVector3, %class.btVector3, i32, float, ptr, ptr, ptr, ptr, i32, i32, i32, i32, i32, float, float, float, float, float, float, float, i32, [4 x i8], ptr, i32, i32, i32, float, float, float, i32, [4 x i8], %class.btAlignedObjectArray, i32, %class.btVector3, [4 x i8] }>
%class.btTransform = type { %class.btMatrix3x3, %class.btVector3 }
%class.btAlignedObjectArray = type <{ %class.btAlignedAllocator, [3 x i8], i32, i32, [4 x i8], ptr, i8, [7 x i8] }>
%class.btAlignedAllocator = type { i8 }

; Function Attrs: mustprogress nounwind uwtable
define linkonce_odr dso_local noundef nonnull align 4 dereferenceable(64) ptr @_ZN17btCollisionObject30getInterpolationWorldTransformEv(ptr noundef nonnull align 8 dereferenceable(372) %this) #1 comdat align 2 {
entry:
  %this.addr = alloca ptr, align 8
  store ptr %this, ptr %this.addr, align 8
  %this1 = load ptr, ptr %this.addr, align 8
  %m_interpolationWorldTransform = getelementptr inbounds %class.btCollisionObject, ptr %this1, i32 0, i32 2
  ret ptr %m_interpolationWorldTransform
}

; Function Attrs: mustprogress uwtable
define dso_local { <2 x float>, <2 x float> } @_ZNK35btReducedDeformableStaticConstraint10getDeltaVaEv(ptr noundef nonnull align 8 dereferenceable(172) %this) #5 align 2 {
entry:
  %retval = alloca %class.btVector3, align 4
  %this.addr = alloca ptr, align 8
  store ptr %this, ptr %this.addr, align 8
  %this1 = load ptr, ptr %this.addr, align 8
  %m_rsb = getelementptr inbounds %class.btReducedDeformableStaticConstraint, ptr %this1, i32 0, i32 1
  %0 = load ptr, ptr %m_rsb, align 8
  %m_rsb2 = getelementptr inbounds %class.btReducedDeformableStaticConstraint, ptr %this1, i32 0, i32 1
  %1 = load ptr, ptr %m_rsb2, align 8
  %call = call noundef nonnull align 4 dereferenceable(64) ptr @_ZN17btCollisionObject30getInterpolationWorldTransformEv(ptr noundef nonnull align 8 dereferenceable(372) %1)
  %m_node = getelementptr inbounds %class.btDeformableStaticConstraint, ptr %this1, i32 0, i32 1
  %2 = load ptr, ptr %m_node, align 8
  %index = getelementptr inbounds %"struct.btSoftBody::Node", ptr %2, i32 0, i32 13
  %3 = load i32, ptr %index, align 8
  %call3 = call { <2 x float>, <2 x float> } @_ZNK23btReducedDeformableBody32internalComputeNodeDeltaVelocityERK11btTransformi(ptr noundef nonnull align 8 dereferenceable(3176) %0, ptr noundef nonnull align 4 dereferenceable(64) %call, i32 noundef %3)
  %coerce.dive = getelementptr inbounds %class.btVector3, ptr %retval, i32 0, i32 0
  %4 = getelementptr inbounds { <2 x float>, <2 x float> }, ptr %coerce.dive, i32 0, i32 0
  %5 = extractvalue { <2 x float>, <2 x float> } %call3, 0
  store <2 x float> %5, ptr %4, align 4
  %6 = getelementptr inbounds { <2 x float>, <2 x float> }, ptr %coerce.dive, i32 0, i32 1
  %7 = extractvalue { <2 x float>, <2 x float> } %call3, 1
  store <2 x float> %7, ptr %6, align 4
  %coerce.dive4 = getelementptr inbounds %class.btVector3, ptr %retval, i32 0, i32 0
  %8 = load { <2 x float>, <2 x float> }, ptr %coerce.dive4, align 4
  ret { <2 x float>, <2 x float> } %8
}