; Function Attrs: mustprogress uwtable
define dso_local { <2 x float>, <2 x float> } @_ZNK35btReducedDeformableStaticConstraint10getDeltaVaEv(ptr nocapture noundef nonnull readonly align 8 dereferenceable(172) %this) local_unnamed_addr #3 align 2 {
entry:
  %m_rsb = getelementptr inbounds i8, ptr %this, i64 48
  %0 = load ptr, ptr %m_rsb, align 8
  %m_interpolationWorldTransform.i = getelementptr inbounds i8, ptr %0, i64 72
  %m_node = getelementptr inbounds i8, ptr %this, i64 40
  %1 = load ptr, ptr %m_node, align 8
  %index = getelementptr inbounds i8, ptr %1, i64 136
  %2 = load i32, ptr %index, align 8
  %call3 = tail call { <2 x float>, <2 x float> } @_ZNK23btReducedDeformableBody32internalComputeNodeDeltaVelocityERK11btTransformi(ptr noundef nonnull align 8 dereferenceable(3176) %0, ptr noundef nonnull align 4 dereferenceable(64) %m_interpolationWorldTransform.i, i32 noundef %2)
  ret { <2 x float>, <2 x float> } %call3
}